; Function Attrs: mustprogress uwtable
define hidden noundef ptr @_ZN3smt33ext_theory_conflict_justification8mk_proofERNS_19conflict_resolutionE(ptr noundef nonnull readonly align 8 captures(none) dereferenceable(56) %0, ptr noundef nonnull align 8 dereferenceable(356) %1) unnamed_addr #5 align 2 personality ptr @__gxx_personality_v0 {
  %3 = alloca %class.ptr_buffer, align 8
  call void @llvm.lifetime.start.p0(i64 144, ptr nonnull %3) #22
  %4 = getelementptr inbounds nuw i8, ptr %3, i64 16
  store ptr %4, ptr %3, align 8, !tbaa !117
  %5 = getelementptr inbounds nuw i8, ptr %3, i64 8
  store i32 0, ptr %5, align 8, !tbaa !119
  %6 = getelementptr inbounds nuw i8, ptr %3, i64 12
  store i32 16, ptr %6, align 4, !tbaa !120
  %7 = invoke noundef zeroext i1 @_ZN3smt24ext_simple_justification16antecedent2proofERNS_19conflict_resolutionER10ptr_bufferI3appLj16EE(ptr noundef nonnull align 8 dereferenceable(40) %0, ptr noundef nonnull align 8 dereferenceable(356) %1, ptr noundef nonnull align 8 dereferenceable(144) %3)
          to label %8 unwind label %9

8:                                                ; preds = %2
  br i1 %7, label %11, label %29

9:                                                ; preds = %2
  %10 = landingpad { ptr, i32 }
          cleanup
  br label %36

11:                                               ; preds = %8
  %12 = getelementptr inbounds nuw i8, ptr %1, i64 8
  %13 = load ptr, ptr %12, align 8, !tbaa !86
  %14 = getelementptr inbounds nuw i8, ptr %0, i64 40
  %15 = load i32, ptr %14, align 8, !tbaa !694
  %16 = getelementptr inbounds nuw i8, ptr %13, i64 864
  %17 = load ptr, ptr %16, align 8, !tbaa !183
  %18 = load i32, ptr %5, align 8, !tbaa !119
  %19 = load ptr, ptr %3, align 8, !tbaa !117
  %20 = getelementptr inbounds nuw i8, ptr %0, i64 48
  %21 = load ptr, ptr %20, align 8, !tbaa !218
  %22 = icmp eq ptr %21, null
  br i1 %22, label %_ZNK6vectorI9parameterLb1EjE4sizeEv.exit, label %23

23:                                               ; preds = %11
  %24 = getelementptr inbounds i8, ptr %21, i64 -4
  %25 = load i32, ptr %24, align 4, !tbaa !29
  br label %_ZNK6vectorI9parameterLb1EjE4sizeEv.exit

_ZNK6vectorI9parameterLb1EjE4sizeEv.exit:         ; preds = %11, %23
  %.0.i = phi i32 [ %25, %23 ], [ 0, %11 ]
  %26 = invoke noundef ptr @_ZN11ast_manager11mk_th_lemmaEiP4exprjPKP3appjPK9parameter(ptr noundef nonnull align 8 dereferenceable(976) %13, i32 noundef %15, ptr noundef %17, i32 noundef %18, ptr noundef %19, i32 noundef %.0.i, ptr noundef %21)
          to label %29 unwind label %27

27:                                               ; preds = %_ZNK6vectorI9parameterLb1EjE4sizeEv.exit
  %28 = landingpad { ptr, i32 }
          cleanup
  br label %36

29:                                               ; preds = %_ZNK6vectorI9parameterLb1EjE4sizeEv.exit, %8
  %.0 = phi ptr [ null, %8 ], [ %26, %_ZNK6vectorI9parameterLb1EjE4sizeEv.exit ]
  %30 = load ptr, ptr %3, align 8, !tbaa !117
  %.not.i.i.i = icmp eq ptr %30, %4
  %31 = icmp eq ptr %30, null
  %or.cond.i.i.i = or i1 %.not.i.i.i, %31
  br i1 %or.cond.i.i.i, label %_ZN6bufferIP3appLb0ELj16EED2Ev.exit, label %32

32:                                               ; preds = %29
  invoke void @_ZN6memory10deallocateEPv(ptr noundef nonnull %30)
          to label %_ZN6bufferIP3appLb0ELj16EED2Ev.exit unwind label %33

33:                                               ; preds = %32
  %34 = landingpad { ptr, i32 }
          catch ptr null
  %35 = extractvalue { ptr, i32 } %34, 0
  call void @__clang_call_terminate(ptr %35) #23
  unreachable

_ZN6bufferIP3appLb0ELj16EED2Ev.exit:              ; preds = %29, %32
  call void @llvm.lifetime.end.p0(i64 144, ptr nonnull %3) #22
  ret ptr %.0

36:                                               ; preds = %27, %9
  %.pn = phi { ptr, i32 } [ %28, %27 ], [ %10, %9 ]
  call void @_ZN6bufferIP3appLb0ELj16EED2Ev(ptr noundef nonnull align 8 dereferenceable(144) %3) #22
  call void @llvm.lifetime.end.p0(i64 144, ptr nonnull %3) #22
  resume { ptr, i32 } %.pn
}